target datalayout = "e-m:e-p270:32:32-p271:32:32-p272:64:64-i64:64-i128:128-f80:128-n8:16:32:64-S128"
target triple = "x86_64-pc-linux-gnu"

%"class.(anonymous namespace)::SDiagsWriter" = type { %"class.clang::DiagnosticConsumer", ptr, i8, i8, i8, %"class.std::shared_ptr" }
%"class.clang::DiagnosticConsumer" = type { ptr, i32, i32 }
%"class.std::shared_ptr" = type { %"class.std::__shared_ptr" }
%"class.std::__shared_ptr" = type { ptr, %"class.std::__shared_count" }
%"class.std::__shared_count" = type { ptr }
%"class.clang::FullSourceLoc" = type { %"class.clang::SourceLocation", ptr }
%"class.clang::SourceLocation" = type { i32 }
%"class.clang::PresumedLoc" = type { ptr, %"class.clang::FileID", i32, i32, %"class.clang::SourceLocation" }
%"class.clang::FileID" = type { i32 }
%"class.clang::CharSourceRange" = type <{ %"class.clang::SourceRange", i8, [3 x i8] }>
%"class.clang::SourceRange" = type { %"class.clang::SourceLocation", %"class.clang::SourceLocation" }

; Function Attrs: mustprogress nounwind uwtable
define linkonce_odr hidden void @_ZN5clang14SourceLocationC2Ev(ptr noundef nonnull align 4 dereferenceable(4) %0) unnamed_addr #0 comdat align 2 {
  %2 = alloca ptr, align 8
  store ptr %0, ptr %2, align 8
  %3 = load ptr, ptr %2, align 8
  %4 = getelementptr inbounds nuw %"class.clang::SourceLocation", ptr %3, i32 0, i32 0
  store i32 0, ptr %4, align 4
  ret void
}

; Function Attrs: mustprogress nounwind uwtable
define linkonce_odr hidden void @_ZN5clang6FileIDC2Ev(ptr noundef nonnull align 4 dereferenceable(4) %0) unnamed_addr #0 comdat align 2 {
  %2 = alloca ptr, align 8
  store ptr %0, ptr %2, align 8
  %3 = load ptr, ptr %2, align 8
  %4 = getelementptr inbounds nuw %"class.clang::FileID", ptr %3, i32 0, i32 0
  store i32 0, ptr %4, align 4
  ret void
}

; Function Attrs: mustprogress nounwind uwtable
define linkonce_odr hidden i32 @_ZNK5clang11SourceRange6getEndEv(ptr noundef nonnull align 4 dereferenceable(8) %0) #0 comdat align 2 {
  %2 = alloca %"class.clang::SourceLocation", align 4
  %3 = alloca ptr, align 8
  store ptr %0, ptr %3, align 8
  %4 = load ptr, ptr %3, align 8
  %5 = getelementptr inbounds nuw %"class.clang::SourceRange", ptr %4, i32 0, i32 1
  call void @llvm.memcpy.p0.p0.i64(ptr align 4 %2, ptr align 4 %5, i64 4, i1 false)
  %6 = getelementptr inbounds nuw %"class.clang::SourceLocation", ptr %2, i32 0, i32 0
  %7 = load i32, ptr %6, align 4
  ret i32 %7
}

; Function Attrs: mustprogress nounwind uwtable
define linkonce_odr hidden void @_ZN5clang11PresumedLocC2Ev(ptr noundef nonnull align 8 dereferenceable(24) %0) unnamed_addr #0 comdat align 2 {
  %2 = alloca ptr, align 8
  store ptr %0, ptr %2, align 8
  %3 = load ptr, ptr %2, align 8
  %4 = getelementptr inbounds nuw %"class.clang::PresumedLoc", ptr %3, i32 0, i32 0
  store ptr null, ptr %4, align 8
  %5 = getelementptr inbounds nuw %"class.clang::PresumedLoc", ptr %3, i32 0, i32 1
  call void @_ZN5clang6FileIDC2Ev(ptr noundef nonnull align 4 dereferenceable(4) %5) #13
  %6 = getelementptr inbounds nuw %"class.clang::PresumedLoc", ptr %3, i32 0, i32 4
  call void @_ZN5clang14SourceLocationC2Ev(ptr noundef nonnull align 4 dereferenceable(4) %6) #13
  ret void
}

; Function Attrs: mustprogress nounwind uwtable
define linkonce_odr hidden noundef zeroext i1 @_ZNK5clang13FullSourceLoc10hasManagerEv(ptr noundef nonnull align 8 dereferenceable(16) %0) #0 comdat align 2 {
  %2 = alloca ptr, align 8
  store ptr %0, ptr %2, align 8
  %3 = load ptr, ptr %2, align 8
  %4 = getelementptr inbounds nuw %"class.clang::FullSourceLoc", ptr %3, i32 0, i32 1
  %5 = load ptr, ptr %4, align 8
  %6 = icmp ne ptr %5, null
  ret i1 %6
}

; Function Attrs: mustprogress nounwind uwtable
define linkonce_odr hidden i32 @_ZNK5clang11SourceRange8getBeginEv(ptr noundef nonnull align 4 dereferenceable(8) %0) #0 comdat align 2 {
  %2 = alloca %"class.clang::SourceLocation", align 4
  %3 = alloca ptr, align 8
  store ptr %0, ptr %3, align 8
  %4 = load ptr, ptr %3, align 8
  %5 = getelementptr inbounds nuw %"class.clang::SourceRange", ptr %4, i32 0, i32 0
  call void @llvm.memcpy.p0.p0.i64(ptr align 4 %2, ptr align 4 %5, i64 4, i1 false)
  %6 = getelementptr inbounds nuw %"class.clang::SourceLocation", ptr %2, i32 0, i32 0
  %7 = load i32, ptr %6, align 4
  ret i32 %7
}

; Function Attrs: mustprogress nounwind uwtable
define linkonce_odr hidden i32 @_ZNK5clang15CharSourceRange6getEndEv(ptr noundef nonnull align 4 dereferenceable(9) %0) #0 comdat align 2 {
  %2 = alloca %"class.clang::SourceLocation", align 4
  %3 = alloca ptr, align 8
  store ptr %0, ptr %3, align 8
  %4 = load ptr, ptr %3, align 8
  %5 = getelementptr inbounds nuw %"class.clang::CharSourceRange", ptr %4, i32 0, i32 0
  %6 = call i32 @_ZNK5clang11SourceRange6getEndEv(ptr noundef nonnull align 4 dereferenceable(8) %5)
  %7 = getelementptr inbounds nuw %"class.clang::SourceLocation", ptr %2, i32 0, i32 0
  store i32 %6, ptr %7, align 4
  %8 = getelementptr inbounds nuw %"class.clang::SourceLocation", ptr %2, i32 0, i32 0
  %9 = load i32, ptr %8, align 4
  ret i32 %9
}

; Function Attrs: mustprogress nounwind uwtable
define linkonce_odr hidden noundef zeroext i1 @_ZNK5clang15CharSourceRange12isTokenRangeEv(ptr noundef nonnull align 4 dereferenceable(9) %0) #0 comdat align 2 {
  %2 = alloca ptr, align 8
  store ptr %0, ptr %2, align 8
  %3 = load ptr, ptr %2, align 8
  %4 = getelementptr inbounds nuw %"class.clang::CharSourceRange", ptr %3, i32 0, i32 1
  %5 = load i8, ptr %4, align 4
  %6 = trunc i8 %5 to i1
  ret i1 %6
}

; Function Attrs: mustprogress nounwind uwtable
define internal void @_ZN12_GLOBAL__N_112SDiagsWriter14AddLocToRecordEN5clang13FullSourceLocERN4llvm15SmallVectorImplImEEj(ptr noundef nonnull align 8 dereferenceable(48) %0, i32 %1, ptr %2, ptr noundef nonnull align 8 dereferenceable(16) %3, i32 noundef %4) #0 align 2 {
  %6 = alloca %"class.clang::FullSourceLoc", align 8
  %7 = alloca ptr, align 8
  %8 = alloca ptr, align 8
  %9 = alloca i32, align 4
  %10 = alloca %"class.clang::FullSourceLoc", align 8
  %11 = alloca %"class.clang::PresumedLoc", align 8
  %12 = getelementptr inbounds nuw { i32, ptr }, ptr %6, i32 0, i32 0
  store i32 %1, ptr %12, align 8
  %13 = getelementptr inbounds nuw { i32, ptr }, ptr %6, i32 0, i32 1
  store ptr %2, ptr %13, align 8
  store ptr %0, ptr %7, align 8
  store ptr %3, ptr %8, align 8
  store i32 %4, ptr %9, align 4
  %14 = load ptr, ptr %7, align 8
  call void @llvm.memcpy.p0.p0.i64(ptr align 8 %10, ptr align 8 %6, i64 16, i1 false)
  %15 = call noundef zeroext i1 @_ZNK5clang13FullSourceLoc10hasManagerEv(ptr noundef nonnull align 8 dereferenceable(16) %6)
  br i1 %15, label %16, label %17

16:                                               ; preds = %5
  call void @_ZNK5clang13FullSourceLoc14getPresumedLocEb(ptr dead_on_unwind writable sret(%"class.clang::PresumedLoc") align 8 %11, ptr noundef nonnull align 8 dereferenceable(16) %6, i1 noundef zeroext true)
  br label %18

17:                                               ; preds = %5
  call void @llvm.memset.p0.i64(ptr align 8 %11, i8 0, i64 24, i1 false)
  call void @_ZN5clang11PresumedLocC2Ev(ptr noundef nonnull align 8 dereferenceable(24) %11) #13
  br label %18

18:                                               ; preds = %17, %16
  %19 = load ptr, ptr %8, align 8
  %20 = load i32, ptr %9, align 4
  %21 = getelementptr inbounds nuw { i32, ptr }, ptr %10, i32 0, i32 0
  %22 = load i32, ptr %21, align 8
  %23 = getelementptr inbounds nuw { i32, ptr }, ptr %10, i32 0, i32 1
  %24 = load ptr, ptr %23, align 8
  call void @_ZN12_GLOBAL__N_112SDiagsWriter14AddLocToRecordEN5clang13FullSourceLocENS1_11PresumedLocERN4llvm15SmallVectorImplImEEj(ptr noundef nonnull align 8 dereferenceable(48) %14, i32 %22, ptr %24, ptr noundef byval(%"class.clang::PresumedLoc") align 8 %11, ptr noundef nonnull align 8 dereferenceable(16) %19, i32 noundef %20)
  ret void
}

; Function Attrs: mustprogress nounwind uwtable
define linkonce_odr hidden void @_ZN5clang13FullSourceLocC2ENS_14SourceLocationERKNS_13SourceManagerE(ptr noundef nonnull align 8 dereferenceable(16) %0, i32 %1, ptr noundef nonnull align 8 dereferenceable(696) %2) unnamed_addr #0 comdat align 2 {
  %4 = alloca %"class.clang::SourceLocation", align 4
  %5 = alloca ptr, align 8
  %6 = alloca ptr, align 8
  %7 = getelementptr inbounds nuw %"class.clang::SourceLocation", ptr %4, i32 0, i32 0
  store i32 %1, ptr %7, align 4
  store ptr %0, ptr %5, align 8
  store ptr %2, ptr %6, align 8
  %8 = load ptr, ptr %5, align 8
  call void @llvm.memcpy.p0.p0.i64(ptr align 8 %8, ptr align 4 %4, i64 4, i1 false)
  %9 = getelementptr inbounds nuw %"class.clang::FullSourceLoc", ptr %8, i32 0, i32 1
  %10 = load ptr, ptr %6, align 8
  store ptr %10, ptr %9, align 8
  ret void
}

; Function Attrs: mustprogress nounwind uwtable
define linkonce_odr hidden i32 @_ZNK5clang15CharSourceRange8getBeginEv(ptr noundef nonnull align 4 dereferenceable(9) %0) #0 comdat align 2 {
  %2 = alloca %"class.clang::SourceLocation", align 4
  %3 = alloca ptr, align 8
  store ptr %0, ptr %3, align 8
  %4 = load ptr, ptr %3, align 8
  %5 = getelementptr inbounds nuw %"class.clang::CharSourceRange", ptr %4, i32 0, i32 0
  %6 = call i32 @_ZNK5clang11SourceRange8getBeginEv(ptr noundef nonnull align 4 dereferenceable(8) %5)
  %7 = getelementptr inbounds nuw %"class.clang::SourceLocation", ptr %2, i32 0, i32 0
  store i32 %6, ptr %7, align 4
  %8 = getelementptr inbounds nuw %"class.clang::SourceLocation", ptr %2, i32 0, i32 0
  %9 = load i32, ptr %8, align 4
  ret i32 %9
}

; Function Attrs: mustprogress nounwind uwtable
define internal void @_ZN12_GLOBAL__N_112SDiagsWriter26AddCharSourceRangeToRecordEN5clang15CharSourceRangeERN4llvm15SmallVectorImplImEERKNS1_13SourceManagerE(ptr noundef nonnull align 8 dereferenceable(48) %0, i64 %1, i8 %2, ptr noundef nonnull align 8 dereferenceable(16) %3, ptr noundef nonnull align 8 dereferenceable(696) %4) #0 align 2 {
  %6 = alloca %"class.clang::CharSourceRange", align 4
  %7 = alloca { i64, i8 }, align 4
  %8 = alloca ptr, align 8
  %9 = alloca ptr, align 8
  %10 = alloca ptr, align 8
  %11 = alloca %"class.clang::FullSourceLoc", align 8
  %12 = alloca %"class.clang::SourceLocation", align 4
  %13 = alloca i32, align 4
  %14 = alloca %"class.clang::SourceLocation", align 4
  %15 = alloca %"class.clang::FullSourceLoc", align 8
  %16 = alloca %"class.clang::SourceLocation", align 4
  %17 = getelementptr inbounds nuw { i64, i8 }, ptr %7, i32 0, i32 0
  store i64 %1, ptr %17, align 4
  %18 = getelementptr inbounds nuw { i64, i8 }, ptr %7, i32 0, i32 1
  store i8 %2, ptr %18, align 4
  call void @llvm.memcpy.p0.p0.i64(ptr align 4 %6, ptr align 4 %7, i64 12, i1 false)
  store ptr %0, ptr %8, align 8
  store ptr %3, ptr %9, align 8
  store ptr %4, ptr %10, align 8
  %19 = load ptr, ptr %8, align 8
  %20 = call i32 @_ZNK5clang15CharSourceRange8getBeginEv(ptr noundef nonnull align 4 dereferenceable(9) %6)
  %21 = getelementptr inbounds nuw %"class.clang::SourceLocation", ptr %12, i32 0, i32 0
  store i32 %20, ptr %21, align 4
  %22 = load ptr, ptr %10, align 8
  %23 = getelementptr inbounds nuw %"class.clang::SourceLocation", ptr %12, i32 0, i32 0
  %24 = load i32, ptr %23, align 4
  call void @_ZN5clang13FullSourceLocC2ENS_14SourceLocationERKNS_13SourceManagerE(ptr noundef nonnull align 8 dereferenceable(16) %11, i32 %24, ptr noundef nonnull align 8 dereferenceable(696) %22)
  %25 = load ptr, ptr %9, align 8
  %26 = getelementptr inbounds nuw { i32, ptr }, ptr %11, i32 0, i32 0
  %27 = load i32, ptr %26, align 8
  %28 = getelementptr inbounds nuw { i32, ptr }, ptr %11, i32 0, i32 1
  %29 = load ptr, ptr %28, align 8
  call void @_ZN12_GLOBAL__N_112SDiagsWriter14AddLocToRecordEN5clang13FullSourceLocERN4llvm15SmallVectorImplImEEj(ptr noundef nonnull align 8 dereferenceable(48) %19, i32 %27, ptr %29, ptr noundef nonnull align 8 dereferenceable(16) %25, i32 noundef 0)
  store i32 0, ptr %13, align 4
  %30 = call noundef zeroext i1 @_ZNK5clang15CharSourceRange12isTokenRangeEv(ptr noundef nonnull align 4 dereferenceable(9) %6)
  br i1 %30, label %31, label %40

31:                                               ; preds = %5
  %32 = call i32 @_ZNK5clang15CharSourceRange6getEndEv(ptr noundef nonnull align 4 dereferenceable(9) %6)
  %33 = getelementptr inbounds nuw %"class.clang::SourceLocation", ptr %14, i32 0, i32 0
  store i32 %32, ptr %33, align 4
  %34 = load ptr, ptr %10, align 8
  %35 = getelementptr inbounds nuw %"class.(anonymous namespace)::SDiagsWriter", ptr %19, i32 0, i32 1
  %36 = load ptr, ptr %35, align 8
  %37 = getelementptr inbounds nuw %"class.clang::SourceLocation", ptr %14, i32 0, i32 0
  %38 = load i32, ptr %37, align 4
  %39 = call noundef i32 @_ZN5clang5Lexer18MeasureTokenLengthENS_14SourceLocationERKNS_13SourceManagerERKNS_11LangOptionsE(i32 %38, ptr noundef nonnull align 8 dereferenceable(696) %34, ptr noundef nonnull align 8 dereferenceable(841) %36)
  store i32 %39, ptr %13, align 4
  br label %40

40:                                               ; preds = %31, %5
  %41 = call i32 @_ZNK5clang15CharSourceRange6getEndEv(ptr noundef nonnull align 4 dereferenceable(9) %6)
  %42 = getelementptr inbounds nuw %"class.clang::SourceLocation", ptr %16, i32 0, i32 0
  store i32 %41, ptr %42, align 4
  %43 = load ptr, ptr %10, align 8
  %44 = getelementptr inbounds nuw %"class.clang::SourceLocation", ptr %16, i32 0, i32 0
  %45 = load i32, ptr %44, align 4
  call void @_ZN5clang13FullSourceLocC2ENS_14SourceLocationERKNS_13SourceManagerE(ptr noundef nonnull align 8 dereferenceable(16) %15, i32 %45, ptr noundef nonnull align 8 dereferenceable(696) %43)
  %46 = load ptr, ptr %9, align 8
  %47 = load i32, ptr %13, align 4
  %48 = getelementptr inbounds nuw { i32, ptr }, ptr %15, i32 0, i32 0
  %49 = load i32, ptr %48, align 8
  %50 = getelementptr inbounds nuw { i32, ptr }, ptr %15, i32 0, i32 1
  %51 = load ptr, ptr %50, align 8
  call void @_ZN12_GLOBAL__N_112SDiagsWriter14AddLocToRecordEN5clang13FullSourceLocERN4llvm15SmallVectorImplImEEj(ptr noundef nonnull align 8 dereferenceable(48) %19, i32 %49, ptr %51, ptr noundef nonnull align 8 dereferenceable(16) %46, i32 noundef %47)
  ret void
}