; Function Attrs: mustprogress nounwind uwtable
define internal fastcc void @_ZN12_GLOBAL__N_112SDiagsWriter26AddCharSourceRangeToRecordEN5clang15CharSourceRangeERN4llvm15SmallVectorImplImEERKNS1_13SourceManagerE(ptr noundef nonnull readonly align 8 captures(none) dereferenceable(48) %0, i64 %1, i8 %2, ptr noundef nonnull align 8 dereferenceable(16) %3, ptr noundef nonnull align 8 dereferenceable(696) %4) unnamed_addr #0 align 2 {
_ZN12_GLOBAL__N_112SDiagsWriter14AddLocToRecordEN5clang13FullSourceLocERN4llvm15SmallVectorImplImEEj.exit:
  %5 = alloca %"class.clang::FullSourceLoc", align 8
  %6 = alloca %"class.clang::PresumedLoc", align 8
  %7 = alloca %"class.clang::FullSourceLoc", align 8
  %8 = alloca %"class.clang::PresumedLoc", align 8
  %.sroa.015.0.extract.trunc = trunc i64 %1 to i32
  %.sroa.216.0.extract.shift = lshr i64 %1, 32
  %.sroa.216.0.extract.trunc = trunc nuw i64 %.sroa.216.0.extract.shift to i32
  call void @llvm.lifetime.start.p0(i64 16, ptr nonnull %7)
  call void @llvm.lifetime.start.p0(i64 24, ptr nonnull %8)
  store i32 %.sroa.015.0.extract.trunc, ptr %7, align 8
  %9 = getelementptr inbounds nuw i8, ptr %7, i64 8
  store ptr %4, ptr %9, align 8
  call void @_ZNK5clang13FullSourceLoc14getPresumedLocEb(ptr dead_on_unwind nonnull writable sret(%"class.clang::PresumedLoc") align 8 %8, ptr noundef nonnull align 8 dereferenceable(16) %7, i1 noundef zeroext true) #18
  call fastcc void @_ZN12_GLOBAL__N_112SDiagsWriter14AddLocToRecordEN5clang13FullSourceLocENS1_11PresumedLocERN4llvm15SmallVectorImplImEEj(ptr noundef nonnull readonly align 8 dereferenceable(48) %0, i32 %.sroa.015.0.extract.trunc, ptr nonnull %4, ptr noundef nonnull byval(%"class.clang::PresumedLoc") align 8 %8, ptr noundef nonnull align 8 dereferenceable(16) %3, i32 noundef 0)
  call void @llvm.lifetime.end.p0(i64 16, ptr nonnull %7)
  call void @llvm.lifetime.end.p0(i64 24, ptr nonnull %8)
  %10 = trunc i8 %2 to i1
  br i1 %10, label %11, label %_ZN12_GLOBAL__N_112SDiagsWriter14AddLocToRecordEN5clang13FullSourceLocERN4llvm15SmallVectorImplImEEj.exit12

11:                                               ; preds = %_ZN12_GLOBAL__N_112SDiagsWriter14AddLocToRecordEN5clang13FullSourceLocERN4llvm15SmallVectorImplImEEj.exit
  %12 = getelementptr inbounds nuw i8, ptr %0, i64 16
  %13 = load ptr, ptr %12, align 8
  %14 = call noundef i32 @_ZN5clang5Lexer18MeasureTokenLengthENS_14SourceLocationERKNS_13SourceManagerERKNS_11LangOptionsE(i32 %.sroa.216.0.extract.trunc, ptr noundef nonnull align 8 dereferenceable(696) %4, ptr noundef nonnull align 8 dereferenceable(841) %13) #18
  br label %_ZN12_GLOBAL__N_112SDiagsWriter14AddLocToRecordEN5clang13FullSourceLocERN4llvm15SmallVectorImplImEEj.exit12

_ZN12_GLOBAL__N_112SDiagsWriter14AddLocToRecordEN5clang13FullSourceLocERN4llvm15SmallVectorImplImEEj.exit12: ; preds = %11, %_ZN12_GLOBAL__N_112SDiagsWriter14AddLocToRecordEN5clang13FullSourceLocERN4llvm15SmallVectorImplImEEj.exit
  %.0 = phi i32 [ %14, %11 ], [ 0, %_ZN12_GLOBAL__N_112SDiagsWriter14AddLocToRecordEN5clang13FullSourceLocERN4llvm15SmallVectorImplImEEj.exit ]
  call void @llvm.lifetime.start.p0(i64 16, ptr nonnull %5)
  call void @llvm.lifetime.start.p0(i64 24, ptr nonnull %6)
  store i32 %.sroa.216.0.extract.trunc, ptr %5, align 8
  %15 = getelementptr inbounds nuw i8, ptr %5, i64 8
  store ptr %4, ptr %15, align 8
  call void @_ZNK5clang13FullSourceLoc14getPresumedLocEb(ptr dead_on_unwind nonnull writable sret(%"class.clang::PresumedLoc") align 8 %6, ptr noundef nonnull align 8 dereferenceable(16) %5, i1 noundef zeroext true) #18
  call fastcc void @_ZN12_GLOBAL__N_112SDiagsWriter14AddLocToRecordEN5clang13FullSourceLocENS1_11PresumedLocERN4llvm15SmallVectorImplImEEj(ptr noundef nonnull readonly align 8 dereferenceable(48) %0, i32 %.sroa.216.0.extract.trunc, ptr nonnull %4, ptr noundef nonnull byval(%"class.clang::PresumedLoc") align 8 %6, ptr noundef nonnull align 8 dereferenceable(16) %3, i32 noundef %.0)
  call void @llvm.lifetime.end.p0(i64 16, ptr nonnull %5)
  call void @llvm.lifetime.end.p0(i64 24, ptr nonnull %6)
  ret void
}